(dp1
S'deleted'
p2
S'CHAR(1)'
p3
sS'remove'
p4
S'CHAR(1)'
p5
sS'artist_search_field'
p6
S'TEXT'
p7
sS'track_name'
p8
S'TEXT'
p9
sS'file_count'
p10
S'INTEGER'
p11
sS'artist_name'
p12
S'CHAR(32)'
p13
sS'del'
p14
S'CHAR(1)'
p15
sS'track_search_field'
p16
S'TEXT'
p17
sS'id'
p18
S'INTEGER PRIMARY KEY AUTOINCREMENT'
p19
s.