(dp1
S'output'
p2
S''
sS'layer'
p3
S'/home/dave/web2py/applications/init/controllers/audio_links.py'
p4
sS'code'
p5
S'import gluon.contrib.simplejson as sj\n\ndef index(): \n\tsearch = request.args[0]\n\t# get the links that corispond to this audio id\n\taudioLinksByAudioId = db.audio_links.audio_id == search;\n\taudio_links = db(audioLinksByAudioId).select()\n\n\t# get the audio details for this audio id\n\taudioInfoById = db.audio.id == search\n\taudio_rs = db(audioInfoById).select()\n\t#get the audio information from the returned results\n\taudio = audio_rs[0]\n\n\treturn dict(audio=audio, audio_links=audio_links)\n\ndef urls_by_id():\n\t# get the audio id from the request\n\tid = request.args[0]\n\n\t# get the audio_links which hold the urls\n\taudioLinksByAudioId = db.audio_links.audio_id == id;\n\taudio_links = db(audioLinksByAudioId).select(limitby=1)\n\turls = []\n\n\tfor audio_link in audio_links:\n\t\turls.append(audio_link.url)\n\n\treturn sj.dumps(urls)\n\n\nresponse._vars=response._caller(urls_by_id)\n'
p6
sS'traceback'
p7
S'Traceback (most recent call last):\n  File "/home/dave/web2py/gluon/restricted.py", line 184, in restricted\n    exec ccode in environment\n  File "/home/dave/web2py/applications/init/controllers/audio_links.py", line 32, in <module>\n  File "/home/dave/web2py/gluon/globals.py", line 102, in <lambda>\n    self._caller = lambda f: f()\n  File "/home/dave/web2py/applications/init/controllers/audio_links.py", line 23, in urls_by_id\n    audio_links = db(audioLinksByAudioId).select(limitby=1)\n  File "/home/dave/web2py/gluon/sql.py", line 2738, in select\n    query = self._select(*fields, **attributes)\n  File "/home/dave/web2py/gluon/sql.py", line 2685, in _select\n    (lmin, lmax) = attributes[\'limitby\']\nTypeError: \'int\' object is not iterable\n'
p8
s.