(dp1
S'output'
p2
S''
sS'layer'
p3
S'/home/dave/web2py/applications/init/views/default/index.html'
p4
sS'code'
p5
S'response.write(\'<!DOCTYPE html PUBLIC "-//W3C//DTD XHTML 1.0 Transitional//EN"\\r\\n   "http://www.w3.org/TR/xhtml1/DTD/xhtml1-transitional.dtd">\\r\\n<html xmlns="http://www.w3.org/1999/xhtml"\\r\\n      xml:lang="\',escape=False)\nresponse.write(T.accepted_language or \'en\')\nresponse.write(\'">\\r\\n  <head>\\r\\n    <title>\',escape=False)\nresponse.write(response.title or \'mixtree\')\nresponse.write(\'</title>\\r\\n\\t<meta http-equiv="Content-Type" content="text/html; charset=UTF-8" />\\r\\n\\t<meta name="copyright" content="\',escape=False)\nresponse.write(response.copyright or \'\')\nresponse.write(\'" />\\r\\n\\t<meta name="keywords" content="\',escape=False)\nresponse.write(response.keywords or \'\')\nresponse.write(\'" />\\r\\n\\t<meta name="description" content="\',escape=False)\nresponse.write(response.description or \'\')\nresponse.write(\'" />\\r\\n\\t<meta name="robots" content="index,follow" />\\n\\t\\n\\t\\n\\t<script type="text/javascript" src="http://www.google.com/jsapi"></script>\\n\\t<script type="text/javascript" src="\',escape=False)\nresponse.write( URL(request.application, \'static/scripts\', \'soundmanager2-nodebug-jsmin.js\'))\nresponse.write(\'"></script>\\n\\t\\n\\t<!-- load libraries from google -->\\r\\n\\t<script type="text/javascript"> \\n\\t\\tgoogle.load("jquery", "1.3.2");\\n\\t\\tgoogle.load("jqueryui", "1.7.2");\\n\\t\\t//used for embeding the youtube player\\n\\t\\tgoogle.load("swfobject", "2.2");\\t\\t\\n   \\t\\tgoogle.load(\\\'friendconnect\\\', \\\'0.8\\\');\\n    </script>\\n    \\n    <!-- init page objects -->\\n    <script type="text/javascript">\\n        //sound manager set up\\n\\t\\tsoundManager.url = "\',escape=False)\nresponse.write( URL(request.application, \'static\', \'swf/\'))\nresponse.write(\'";\\n\\t\\tsoundManager.useHighPerformance = true; // keep flash on screen, boost performance\\r\\n\\t\\tsoundManager.useFastPolling = true; // increased JS callback frequency\\n\\t\\t\\n\\t\\tvar PP_CONFIG = \\n\\t\\t{\\r\\n\\t\\t  flashVersion: 8,       // version of Flash to tell SoundManager to use - either 8 or 9. Flash 9 required for peak / spectrum data.\\r\\n\\t\\t  usePeakData: false,     // [Flash 9 only] whether or not to show peak data (left/right channel values) - nor noticable on CPU\\r\\n  \\t\\t  useWaveformData: false, // [Flash 9 only] show raw waveform data - WARNING: LIKELY VERY CPU-HEAVY\\r\\n\\t\\t  useEQData: false,      // [Flash 9 only] show EQ (frequency spectrum) data\\r\\n\\t\\t  useFavIcon: false,      // try to apply peakData to address bar (Firefox + Opera) - performance note: appears to make Firefox 3 do some temporary, heavy disk access/swapping/garbage collection at first(?)\\r\\n\\t\\t  useMovieStar: false     // Flash 9.0r115+ only: Support for a subset of MPEG4 formats.\\r\\n\\t\\t}\\n\\t\\t//the current position in the playlist\\n\\t\\tcurPos = 1;\\n\\t\\t\\n\\t    //end of sound manager set up\\n\\t\\n\\t    //set up gfc\\n        google.friendconnect.container.initOpenSocialApi\\n        ({\\n            //site: \\\'06147866215331476977\\\',\\n            site: \\\'16790195981542317008\\\', //dev\\n            onload: function(securityToken) \\n            {\\n                if (!window.timesloaded) \\n                    window.timesloaded = 1;\\n                else\\n                    window.timesloaded++;\\n    \\n                if (window.timesloaded > 1)\\n                {\\n                    //first log user in\\n                    $.get("\',escape=False)\nresponse.write( URL(r=request, c=\'authenticate\'))\nresponse.write(\'", function() \\n                        {\\n                            //then refresh the users options\\n                            refreshUserPanel(); \\n                        }\\n                    );\\n                }\\n            }\\n        });\\n\\t    \\n\\t</script>\\n\\t\\n\\t<script type="text/javascript" src="\',escape=False)\nresponse.write( URL(request.application, \'static/scripts\', \'page-player.js\'))\nresponse.write(\'"></script>\\n\\t<script type="text/javascript" src="\',escape=False)\nresponse.write( URL(request.application, \'static/scripts\', \'youTubePlayerWrapper.js\'))\nresponse.write(\'"></script>\\n\\t<script type="text/javascript" src="\',escape=False)\nresponse.write( URL(r=request, c=\'js\', f=\'mixtree.js\'))\nresponse.write(\'"></script>\\n\\n\\t<link rel="stylesheet" type="text/css" href="\',escape=False)\nresponse.write(URL(request.application,\'static\',\'css/demo.css\'))\nresponse.write(\'" />\\n\\t<link rel="stylesheet" type="text/css" href="\',escape=False)\nresponse.write(URL(request.application,\'static\',\'css/page-player.css\'))\nresponse.write(\'" />\\n\\t<link rel="stylesheet" type="text/css" href="\',escape=False)\nresponse.write(URL(request.application,\'static\',\'css/soundTree.css\'))\nresponse.write(\'" />\\r\\n  </head>\\r\\n  <body>\\n  <div id=\\\'user_panel\\\'>\\n\\n\',escape=False)\nif Auth.isLoggedIn():\n    response.write("\\n    <script> \\n        $(document).ready(function() \\n        {\\n           google.friendconnect.renderSignInButton({ \'id\': \'gfc-login\', \'style\': \'long\' });\\n        });\\n    </script>\\n    <div id=\'gfc-login\'> </div>\\n    user options\\n",escape=False)\n    pass\nresponse.write(\'\\n</div>\\n\\n\\n<!-- / sound manager stuff -->\\n\\t<h1> \',escape=False)\nresponse.write(A(\'mixtree\', _href=URL(r=request, args=[])))\nresponse.write(\' </h1>\\r\\n\\t    \\n<h2>search</h2>\\n<div id=\\\'searchBox\\\'>\\n    <script>\\n\\t//document ready\\n        $(document).ready(function() \\n        {\\n        \\t$("#searchButton").click(\\n\\t\\t\\tfunction()\\n\\t\\t\\t{\\n\\t\\t\\t\\tvar searchInput = $("#searchInput");\\n\\t\\t\\t\\tif(searchInput && searchInput.attr(\\\'value\\\') != \\\'\\\')\\n\\t\\t\\t\\t\\tsearch(searchInput.attr(\\\'value\\\'));\\n\\t\\t\\t\\treturn false;\\t\\n\\t\\t\\t}\\n\\t\\t);\\t\\t\\n        });\\n\\t\\n    </script>\\n    \',escape=False)\nresponse.write(formSearch)\nresponse.write(\'\\n</div>\\n<div id=\\\'mixtreeSearchResults\\\'>\\n    <ul class="playlist">\\n    </ul>\\n</div>\\n<div id=\\\'youTubeSearchResults\\\'>\\n    <ul class="playlist">   \\n    </ul>\\n</div>\\n\\n\\n\\t    \\n    <div id="ytapiplayer">\\n        You need Flash player 8+ and JavaScript enabled to view this video.\\n    </div>\\n\\n  <script type="text/javascript">\\n\\n    var params = { allowScriptAccess: "always" };\\n    var atts = { id: "ytplayer" };\\n    swfobject.embedSWF("http://www.youtube.com/apiplayer?enablejsapi=1&playerapiid=ytplayer", \\n                       "ytapiplayer", "150", "100", "8", null, null, params, atts);\\n\\n  </script>\\n  \\n  \\n  \\n<!-- sound manager stuff -->\\n <div id="control-template">\\r\\n  <!-- control markup inserted dynamically after each link -->\\r\\n  <div class="controls">\\r\\n   <div class="statusbar">\\r\\n    <div class="loading"></div>\\r\\n     <div class="position"></div>\\r\\n   </div>\\r\\n  </div>\\r\\n  <div class="timing">\\r\\n   <div id="sm2_timing" class="timing-data">\\r\\n    <span class="sm2_position">%s1</span> / <span class="sm2_total">%s2</span></div>\\r\\n  </div>\\r\\n  <div class="peak">\\r\\n   <div class="peak-box"><span class="l"></span><span class="r"></span>\\r\\n   </div>\\r\\n  </div>\\r\\n </div>\\n\\n <div id="spectrum-container" class="spectrum-container">\\r\\n  <div class="spectrum-box">\\r\\n   <div class="spectrum"></div>\\r\\n  </div>\\r\\n </div>\\n<!-- end of sound manager stuff -->\\n\\t<a href="javascript:onytplayerStateChange(0)"> next </a>\\r\\n  </body>\\r\\n</html>\\r\\n\',escape=False)'
p6
sS'traceback'
p7
S'Traceback (most recent call last):\n  File "/home/dave/web2py/gluon/restricted.py", line 184, in restricted\n    exec ccode in environment\n  File "/home/dave/web2py/applications/init/views/default/index.html", line 30, in <module>\nNameError: name \'Auth\' is not defined\n'
p8
s.