(dp1
S'output'
p2
S''
sS'layer'
p3
S'/home/dave/web2py/applications/init/controllers/authenticate.py'
p4
sS'code'
p5
S"from gluon.storage import Storage\nexec('from applications.%s.modules import gfc_auth' %request.application)\nreload(gfc_auth);\n\n#check if the current user is logged in\ndef index():\n\n    if not session.logged_in:\n        session.user = gfc_auth.GFCUser.authenticate(mixtree_conf, request)\n        if session.user:\n            #create an auth session entry so that we can use the\n            #SimpleAuth.isLoggedIn method and other decorators\n            #based on gluon.Auth\n            session.logged_in = True\n    \n    return dict()\n\n\nresponse._vars=response._caller(index)\n"
p6
sS'traceback'
p7
S'Traceback (most recent call last):\n  File "/home/dave/web2py/gluon/restricted.py", line 184, in restricted\n    exec ccode in environment\n  File "/home/dave/web2py/applications/init/controllers/authenticate.py", line 19, in <module>\n  File "/home/dave/web2py/gluon/globals.py", line 102, in <lambda>\n    self._caller = lambda f: f()\n  File "/home/dave/web2py/applications/init/controllers/authenticate.py", line 9, in index\n    session.user = gfc_auth.GFCUser.authenticate(mixtree_conf, request)\n  File "/home/dave/web2py/applications/init/modules/gfc_auth.py", line 24, in authenticate\n    gfcUser = GFCUser(cookie.value)\n  File "/home/dave/web2py/applications/init/modules/gfc_auth.py", line 44, in __init__\n    self.populateData()\n  File "/home/dave/web2py/applications/init/modules/gfc_auth.py", line 51, in populateData\n    response = self.osContainer.send_request(request)\n  File "/home/dave/web2py/applications/init/modules/opensocial/__init__.py", line 153, in send_request\n    batch.send(self)\n  File "/home/dave/web2py/applications/init/modules/opensocial/request.py", line 317, in send\n    container.send_request_batch(self, False)\n  File "/home/dave/web2py/applications/init/modules/opensocial/__init__.py", line 174, in send_request_batch\n    self._send_rpc_requests(batch)\n  File "/home/dave/web2py/applications/init/modules/opensocial/__init__.py", line 200, in _send_rpc_requests\n    query_params.update(request.get_query_params())\nAttributeError: \'Person\' object has no attribute \'get_query_params\'\n'
p8
s.