(dp1
S'output'
p2
S''
sS'layer'
p3
S'/home/dave/web2py/applications/init/controllers/user_panel.py'
p4
sS'code'
p5
S"\n#displays the user panel that handles login and user related nav\ndef index():\n    #if logged in then get the user info\n    if auth.is_logged_in() and not session.user_account :\n        #get the user info\n        session.user_account = ''\n    return dict()        \n\n\nresponse._vars=response._caller(index)\n"
p6
sS'traceback'
p7
S'Traceback (most recent call last):\n  File "/home/dave/web2py/gluon/restricted.py", line 184, in restricted\n    exec ccode in environment\n  File "/home/dave/web2py/applications/init/controllers/user_panel.py", line 11, in <module>\n  File "/home/dave/web2py/gluon/globals.py", line 102, in <lambda>\n    self._caller = lambda f: f()\n  File "/home/dave/web2py/applications/init/controllers/user_panel.py", line 5, in index\n    if auth.is_logged_in() and not session.user_account :\nNameError: global name \'auth\' is not defined\n'
p8
s.