(dp1
S'output'
p2
S''
sS'layer'
p3
S'/home/dave/web2py/applications/init/controllers/authenticate.py'
p4
sS'code'
p5
S"from gluon.storage import Storage\nexec('from applications.%s.modules import gfc_auth as GFCUser' %request.application)\nreload(GFCUser)\n\n#check if the current user is logged in\ndef index():\n    #get the cookie value used to get the viewer\n    if GFCUser.Authenticate(request):\n        #create an auth session entry so that we can use the\n        #SimpleAuth.isLoggedIn method and other decorators\n        #based on gluon.Auth\n        session.logged_in = True\n    \n    return dict(cookie=cookie.value)\n\n\nresponse._vars=response._caller(index)\n"
p6
sS'traceback'
p7
S'Traceback (most recent call last):\n  File "/home/dave/web2py/gluon/restricted.py", line 184, in restricted\n    exec ccode in environment\n  File "/home/dave/web2py/applications/init/controllers/authenticate.py", line 2, in <module>\n    exec(\'from applications.%s.modules import gfc_auth as GFCUser\' %request.application)\n  File "<string>", line 1, in <module>\nImportError: No module named modules\n'
p8
s.