(dp1
S'output'
p2
S''
sS'layer'
p3
S'/home/dave/web2py/applications/init/controllers/authenticate.py'
p4
sS'code'
p5
S"from gluon.storage import Storage\n\n#check if the current user is logged in\ndef index():\n    #check for the gfc cookie\n    if 'fcauth' + mixtreeConf.gfc_id in request.cookies:\n        #create an auth session entry so that we can use the\n        #Auth.isLoggedIn method and other decorators\n        session.auth = Storage(user=Storage(user='username');\n        session.logged_in = 'true'\n    \n    return dict()\n\nresponse._vars=response._caller(index)\n"
p6
sS'traceback'
p7
S'Traceback (most recent call last):\n  File "/home/dave/web2py/gluon/restricted.py", line 182, in restricted\n    ccode = compile(code.replace(\'\\r\\n\', \'\\n\'), layer, \'exec\')\n  File "/home/dave/web2py/applications/init/controllers/authenticate.py", line 9\n    session.auth = Storage(user=Storage(user=\'username\');\n                                                        ^\nSyntaxError: invalid syntax\n'
p8
s.